target datalayout = "e-m:e-p270:32:32-p271:32:32-p272:64:64-i64:64-i128:128-f80:128-n8:16:32:64-S128"
target triple = "x86_64-pc-linux-gnu"

%"struct.gmx::MrcDensityMapHeader" = type { i32, i32, %"struct.std::array", %"struct.std::array.0", %"struct.gmx::CrystallographicLabels", %"struct.std::array.3", %"struct.std::array.3", %"struct.std::array.4", %"struct.std::array.4", %"struct.std::array.4", %"struct.std::array.4", %"struct.gmx::MrcDataStatistics", %"struct.gmx::MrcDensitySkewData", %"class.std::vector" }
%"struct.std::array" = type { [4 x i8] }
%"struct.std::array.0" = type { [15 x float] }
%"struct.gmx::CrystallographicLabels" = type { i32, %"struct.std::array.1" }
%"struct.std::array.1" = type { [10 x %"struct.std::array.2"] }
%"struct.std::array.2" = type { [80 x i8] }
%"struct.std::array.3" = type { [3 x float] }
%"struct.std::array.4" = type { [3 x i32] }
%"struct.gmx::MrcDataStatistics" = type { float, float, float, float }
%"struct.gmx::MrcDensitySkewData" = type { i8, %"struct.std::array.5", %"struct.std::array.3" }
%"struct.std::array.5" = type { [9 x float] }
%"class.std::vector" = type { %"struct.std::_Vector_base" }
%"struct.std::_Vector_base" = type { %"struct.std::_Vector_base<unsigned char, std::allocator<unsigned char>>::_Vector_impl" }
%"struct.std::_Vector_base<unsigned char, std::allocator<unsigned char>>::_Vector_impl" = type { %"struct.std::_Vector_base<unsigned char, std::allocator<unsigned char>>::_Vector_impl_data" }
%"struct.std::_Vector_base<unsigned char, std::allocator<unsigned char>>::_Vector_impl_data" = type { ptr, ptr, ptr }
%"class.gmx::TranslateAndScale" = type { %"class.std::unique_ptr.16" }
%"class.std::unique_ptr.16" = type { %"struct.std::__uniq_ptr_data.17" }
%"struct.std::__uniq_ptr_data.17" = type { %"class.std::__uniq_ptr_impl.18" }
%"class.std::__uniq_ptr_impl.18" = type { %"class.std::tuple.19" }
%"class.std::tuple.19" = type { %"struct.std::_Tuple_impl.20" }
%"struct.std::_Tuple_impl.20" = type { %"struct.std::_Head_base.23" }
%"struct.std::_Head_base.23" = type { ptr }
%"class.gmx::BasicVector" = type { [3 x float] }

; Function Attrs: mustprogress nounwind uwtable
define linkonce_odr noundef nonnull align 4 dereferenceable(4) ptr @_ZNSt14__array_traitsIfLm15EE6_S_refERA15_Kfm(ptr noundef nonnull align 4 dereferenceable(60) %0, i64 noundef %1) #3 comdat align 2 {
  %3 = alloca ptr, align 8
  %4 = alloca i64, align 8
  store ptr %0, ptr %3, align 8, !tbaa !149
  store i64 %1, ptr %4, align 8, !tbaa !32
  %5 = load ptr, ptr %3, align 8, !tbaa !149
  %6 = load i64, ptr %4, align 8, !tbaa !32
  %7 = getelementptr inbounds nuw [15 x float], ptr %5, i64 0, i64 %6
  ret ptr %7
}

; Function Attrs: mustprogress nounwind uwtable
define linkonce_odr noundef nonnull align 4 dereferenceable(4) ptr @_ZNSt14__array_traitsIfLm3EE6_S_refERA3_Kfm(ptr noundef nonnull align 4 dereferenceable(12) %0, i64 noundef %1) #3 comdat align 2 {
  %3 = alloca ptr, align 8
  %4 = alloca i64, align 8
  store ptr %0, ptr %3, align 8, !tbaa !149
  store i64 %1, ptr %4, align 8, !tbaa !32
  %5 = load ptr, ptr %3, align 8, !tbaa !149
  %6 = load i64, ptr %4, align 8, !tbaa !32
  %7 = getelementptr inbounds nuw [3 x float], ptr %5, i64 0, i64 %6
  ret ptr %7
}

; Function Attrs: mustprogress nounwind uwtable
define linkonce_odr noundef nonnull align 4 dereferenceable(4) ptr @_ZNSt14__array_traitsIiLm3EE6_S_refERA3_Kim(ptr noundef nonnull align 4 dereferenceable(12) %0, i64 noundef %1) #3 comdat align 2 {
  %3 = alloca ptr, align 8
  %4 = alloca i64, align 8
  store ptr %0, ptr %3, align 8, !tbaa !34
  store i64 %1, ptr %4, align 8, !tbaa !32
  %5 = load ptr, ptr %3, align 8, !tbaa !34
  %6 = load i64, ptr %4, align 8, !tbaa !32
  %7 = getelementptr inbounds nuw [3 x i32], ptr %5, i64 0, i64 %6
  ret ptr %7
}

; Function Attrs: mustprogress nounwind uwtable
define linkonce_odr noundef nonnull align 4 dereferenceable(4) ptr @_ZN3gmx11BasicVectorIfEixEi(ptr noundef nonnull align 4 dereferenceable(12) %0, i32 noundef %1) #3 comdat align 2 {
  %3 = alloca ptr, align 8
  %4 = alloca i32, align 4
  store ptr %0, ptr %3, align 8, !tbaa !145
  store i32 %1, ptr %4, align 4, !tbaa !9
  %5 = load ptr, ptr %3, align 8
  %6 = getelementptr inbounds nuw %"class.gmx::BasicVector", ptr %5, i32 0, i32 0
  %7 = load i32, ptr %4, align 4, !tbaa !9
  %8 = sext i32 %7 to i64
  %9 = getelementptr inbounds [3 x float], ptr %6, i64 0, i64 %8
  ret ptr %9
}

; Function Attrs: mustprogress nounwind uwtable
define linkonce_odr noundef float @_ZNK3gmx11BasicVectorIfEixEi(ptr noundef nonnull align 4 dereferenceable(12) %0, i32 noundef %1) #3 comdat align 2 {
  %3 = alloca ptr, align 8
  %4 = alloca i32, align 4
  store ptr %0, ptr %3, align 8, !tbaa !145
  store i32 %1, ptr %4, align 4, !tbaa !9
  %5 = load ptr, ptr %3, align 8
  %6 = getelementptr inbounds nuw %"class.gmx::BasicVector", ptr %5, i32 0, i32 0
  %7 = load i32, ptr %4, align 4, !tbaa !9
  %8 = sext i32 %7 to i64
  %9 = getelementptr inbounds [3 x float], ptr %6, i64 0, i64 %8
  %10 = load float, ptr %9, align 4, !tbaa !140
  ret float %10
}

; Function Attrs: mustprogress nounwind uwtable
define linkonce_odr void @_ZN3gmx11BasicVectorIfEC2Ev(ptr noundef nonnull align 4 dereferenceable(12) %0) unnamed_addr #3 comdat align 2 {
  %2 = alloca ptr, align 8
  store ptr %0, ptr %2, align 8, !tbaa !145
  ret void
}

; Function Attrs: mustprogress nounwind uwtable
define linkonce_odr noundef nonnull align 4 dereferenceable(4) ptr @_ZNKSt5arrayIfLm15EEixEm(ptr noundef nonnull align 4 dereferenceable(60) %0, i64 noundef %1) #3 comdat align 2 {
  %3 = alloca ptr, align 8
  %4 = alloca i64, align 8
  store ptr %0, ptr %3, align 8, !tbaa !147
  store i64 %1, ptr %4, align 8, !tbaa !32
  %5 = load ptr, ptr %3, align 8
  %6 = getelementptr inbounds nuw %"struct.std::array.0", ptr %5, i32 0, i32 0
  %7 = load i64, ptr %4, align 8, !tbaa !32
  %8 = call noundef nonnull align 4 dereferenceable(4) ptr @_ZNSt14__array_traitsIfLm15EE6_S_refERA15_Kfm(ptr noundef nonnull align 4 dereferenceable(60) %6, i64 noundef %7) #16
  ret ptr %8
}

; Function Attrs: mustprogress nounwind uwtable
define linkonce_odr void @_ZN3gmx11BasicVectorIfEC2Efff(ptr noundef nonnull align 4 dereferenceable(12) %0, float noundef %1, float noundef %2, float noundef %3) unnamed_addr #3 comdat align 2 {
  %5 = alloca ptr, align 8
  %6 = alloca float, align 4
  %7 = alloca float, align 4
  %8 = alloca float, align 4
  store ptr %0, ptr %5, align 8, !tbaa !145
  store float %1, ptr %6, align 4, !tbaa !140
  store float %2, ptr %7, align 4, !tbaa !140
  store float %3, ptr %8, align 4, !tbaa !140
  %9 = load ptr, ptr %5, align 8
  %10 = getelementptr inbounds nuw %"class.gmx::BasicVector", ptr %9, i32 0, i32 0
  %11 = load float, ptr %6, align 4, !tbaa !140
  store float %11, ptr %10, align 4, !tbaa !140
  %12 = getelementptr inbounds float, ptr %10, i64 1
  %13 = load float, ptr %7, align 4, !tbaa !140
  store float %13, ptr %12, align 4, !tbaa !140
  %14 = getelementptr inbounds float, ptr %10, i64 2
  %15 = load float, ptr %8, align 4, !tbaa !140
  store float %15, ptr %14, align 4, !tbaa !140
  ret void
}

; Function Attrs: mustprogress nounwind uwtable
define linkonce_odr noundef nonnull align 4 dereferenceable(4) ptr @_ZNKSt5arrayIfLm3EEixEm(ptr noundef nonnull align 4 dereferenceable(12) %0, i64 noundef %1) #3 comdat align 2 {
  %3 = alloca ptr, align 8
  %4 = alloca i64, align 8
  store ptr %0, ptr %3, align 8, !tbaa !143
  store i64 %1, ptr %4, align 8, !tbaa !32
  %5 = load ptr, ptr %3, align 8
  %6 = getelementptr inbounds nuw %"struct.std::array.3", ptr %5, i32 0, i32 0
  %7 = load i64, ptr %4, align 8, !tbaa !32
  %8 = call noundef nonnull align 4 dereferenceable(4) ptr @_ZNSt14__array_traitsIfLm3EE6_S_refERA3_Kfm(ptr noundef nonnull align 4 dereferenceable(12) %6, i64 noundef %7) #16
  ret ptr %8
}

; Function Attrs: mustprogress nounwind uwtable
define linkonce_odr noundef nonnull align 4 dereferenceable(4) ptr @_ZNKSt5arrayIiLm3EEixEm(ptr noundef nonnull align 4 dereferenceable(12) %0, i64 noundef %1) #3 comdat align 2 {
  %3 = alloca ptr, align 8
  %4 = alloca i64, align 8
  store ptr %0, ptr %3, align 8, !tbaa !11
  store i64 %1, ptr %4, align 8, !tbaa !32
  %5 = load ptr, ptr %3, align 8
  %6 = getelementptr inbounds nuw %"struct.std::array.4", ptr %5, i32 0, i32 0
  %7 = load i64, ptr %4, align 8, !tbaa !32
  %8 = call noundef nonnull align 4 dereferenceable(4) ptr @_ZNSt14__array_traitsIiLm3EE6_S_refERA3_Kim(ptr noundef nonnull align 4 dereferenceable(12) %6, i64 noundef %7) #16
  ret ptr %8
}

; Function Attrs: mustprogress uwtable
define void @_ZN3gmx36getCoordinateTransformationToLatticeERKNS_19MrcDensityMapHeaderE(ptr dead_on_unwind noalias writable sret(%"class.gmx::TranslateAndScale") align 8 %0, ptr noundef nonnull align 8 dereferenceable(1040) %1) #0 {
  %3 = alloca ptr, align 8
  %4 = alloca ptr, align 8
  %5 = alloca float, align 4
  %6 = alloca %"class.gmx::BasicVector", align 4
  %7 = alloca %"class.gmx::BasicVector", align 4
  %8 = alloca %"class.gmx::BasicVector", align 4
  %9 = alloca %"class.gmx::BasicVector", align 4
  %10 = alloca %"class.gmx::BasicVector", align 4
  store ptr %0, ptr %3, align 8
  store ptr %1, ptr %4, align 8, !tbaa !4
  call void @llvm.lifetime.start.p0(i64 4, ptr %5) #16
  store float 0x3FB99999A0000000, ptr %5, align 4, !tbaa !140
  call void @llvm.lifetime.start.p0(i64 12, ptr %6) #16
  %11 = load ptr, ptr %4, align 8, !tbaa !4
  %12 = getelementptr inbounds nuw %"struct.gmx::MrcDensityMapHeader", ptr %11, i32 0, i32 10
  %13 = call noundef nonnull align 4 dereferenceable(4) ptr @_ZNKSt5arrayIiLm3EEixEm(ptr noundef nonnull align 4 dereferenceable(12) %12, i64 noundef 0) #16
  %14 = load i32, ptr %13, align 4, !tbaa !9
  %15 = sitofp i32 %14 to float
  %16 = load ptr, ptr %4, align 8, !tbaa !4
  %17 = getelementptr inbounds nuw %"struct.gmx::MrcDensityMapHeader", ptr %16, i32 0, i32 5
  %18 = call noundef nonnull align 4 dereferenceable(4) ptr @_ZNKSt5arrayIfLm3EEixEm(ptr noundef nonnull align 4 dereferenceable(12) %17, i64 noundef 0) #16
  %19 = load float, ptr %18, align 4, !tbaa !140
  %20 = fmul float %19, 0x3FB99999A0000000
  %21 = fdiv float %15, %20
  %22 = load ptr, ptr %4, align 8, !tbaa !4
  %23 = getelementptr inbounds nuw %"struct.gmx::MrcDensityMapHeader", ptr %22, i32 0, i32 10
  %24 = call noundef nonnull align 4 dereferenceable(4) ptr @_ZNKSt5arrayIiLm3EEixEm(ptr noundef nonnull align 4 dereferenceable(12) %23, i64 noundef 1) #16
  %25 = load i32, ptr %24, align 4, !tbaa !9
  %26 = sitofp i32 %25 to float
  %27 = load ptr, ptr %4, align 8, !tbaa !4
  %28 = getelementptr inbounds nuw %"struct.gmx::MrcDensityMapHeader", ptr %27, i32 0, i32 5
  %29 = call noundef nonnull align 4 dereferenceable(4) ptr @_ZNKSt5arrayIfLm3EEixEm(ptr noundef nonnull align 4 dereferenceable(12) %28, i64 noundef 1) #16
  %30 = load float, ptr %29, align 4, !tbaa !140
  %31 = fmul float %30, 0x3FB99999A0000000
  %32 = fdiv float %26, %31
  %33 = load ptr, ptr %4, align 8, !tbaa !4
  %34 = getelementptr inbounds nuw %"struct.gmx::MrcDensityMapHeader", ptr %33, i32 0, i32 10
  %35 = call noundef nonnull align 4 dereferenceable(4) ptr @_ZNKSt5arrayIiLm3EEixEm(ptr noundef nonnull align 4 dereferenceable(12) %34, i64 noundef 2) #16
  %36 = load i32, ptr %35, align 4, !tbaa !9
  %37 = sitofp i32 %36 to float
  %38 = load ptr, ptr %4, align 8, !tbaa !4
  %39 = getelementptr inbounds nuw %"struct.gmx::MrcDensityMapHeader", ptr %38, i32 0, i32 5
  %40 = call noundef nonnull align 4 dereferenceable(4) ptr @_ZNKSt5arrayIfLm3EEixEm(ptr noundef nonnull align 4 dereferenceable(12) %39, i64 noundef 2) #16
  %41 = load float, ptr %40, align 4, !tbaa !140
  %42 = fmul float %41, 0x3FB99999A0000000
  %43 = fdiv float %37, %42
  call void @_ZN3gmx11BasicVectorIfEC2Efff(ptr noundef nonnull align 4 dereferenceable(12) %6, float noundef %21, float noundef %32, float noundef %43)
  call void @llvm.lifetime.start.p0(i64 12, ptr %7) #16
  %44 = load ptr, ptr %4, align 8, !tbaa !4
  %45 = getelementptr inbounds nuw %"struct.gmx::MrcDensityMapHeader", ptr %44, i32 0, i32 3
  %46 = call noundef nonnull align 4 dereferenceable(4) ptr @_ZNKSt5arrayIfLm15EEixEm(ptr noundef nonnull align 4 dereferenceable(60) %45, i64 noundef 12) #16
  %47 = load float, ptr %46, align 4, !tbaa !140
  %48 = load ptr, ptr %4, align 8, !tbaa !4
  %49 = getelementptr inbounds nuw %"struct.gmx::MrcDensityMapHeader", ptr %48, i32 0, i32 3
  %50 = call noundef nonnull align 4 dereferenceable(4) ptr @_ZNKSt5arrayIfLm15EEixEm(ptr noundef nonnull align 4 dereferenceable(60) %49, i64 noundef 13) #16
  %51 = load float, ptr %50, align 4, !tbaa !140
  %52 = load ptr, ptr %4, align 8, !tbaa !4
  %53 = getelementptr inbounds nuw %"struct.gmx::MrcDensityMapHeader", ptr %52, i32 0, i32 3
  %54 = call noundef nonnull align 4 dereferenceable(4) ptr @_ZNKSt5arrayIfLm15EEixEm(ptr noundef nonnull align 4 dereferenceable(60) %53, i64 noundef 14) #16
  %55 = load float, ptr %54, align 4, !tbaa !140
  call void @_ZN3gmx11BasicVectorIfEC2Efff(ptr noundef nonnull align 4 dereferenceable(12) %7, float noundef %47, float noundef %51, float noundef %55)
  call void @llvm.lifetime.start.p0(i64 12, ptr %8) #16
  call void @_ZN3gmx11BasicVectorIfEC2Ev(ptr noundef nonnull align 4 dereferenceable(12) %8)
  %56 = call noundef float @_ZNK3gmx11BasicVectorIfEixEi(ptr noundef nonnull align 4 dereferenceable(12) %7, i32 noundef 0)
  %57 = fpext float %56 to double
  %58 = fcmp oeq double %57, 0.000000e+00
  br i1 %58, label %59, label %95

59:                                               ; preds = %2
  %60 = call noundef float @_ZNK3gmx11BasicVectorIfEixEi(ptr noundef nonnull align 4 dereferenceable(12) %7, i32 noundef 1)
  %61 = fpext float %60 to double
  %62 = fcmp oeq double %61, 0.000000e+00
  br i1 %62, label %63, label %95

63:                                               ; preds = %59
  %64 = call noundef float @_ZNK3gmx11BasicVectorIfEixEi(ptr noundef nonnull align 4 dereferenceable(12) %7, i32 noundef 2)
  %65 = fpext float %64 to double
  %66 = fcmp oeq double %65, 0.000000e+00
  br i1 %66, label %67, label %95

67:                                               ; preds = %63
  call void @llvm.lifetime.start.p0(i64 12, ptr %9) #16
  %68 = load ptr, ptr %4, align 8, !tbaa !4
  %69 = getelementptr inbounds nuw %"struct.gmx::MrcDensityMapHeader", ptr %68, i32 0, i32 9
  %70 = call noundef nonnull align 4 dereferenceable(4) ptr @_ZNKSt5arrayIiLm3EEixEm(ptr noundef nonnull align 4 dereferenceable(12) %69, i64 noundef 0) #16
  %71 = load i32, ptr %70, align 4, !tbaa !9
  %72 = sub nsw i32 0, %71
  %73 = sitofp i32 %72 to float
  %74 = call noundef nonnull align 4 dereferenceable(4) ptr @_ZN3gmx11BasicVectorIfEixEi(ptr noundef nonnull align 4 dereferenceable(12) %6, i32 noundef 0)
  %75 = load float, ptr %74, align 4, !tbaa !140
  %76 = fdiv float %73, %75
  %77 = load ptr, ptr %4, align 8, !tbaa !4
  %78 = getelementptr inbounds nuw %"struct.gmx::MrcDensityMapHeader", ptr %77, i32 0, i32 9
  %79 = call noundef nonnull align 4 dereferenceable(4) ptr @_ZNKSt5arrayIiLm3EEixEm(ptr noundef nonnull align 4 dereferenceable(12) %78, i64 noundef 1) #16
  %80 = load i32, ptr %79, align 4, !tbaa !9
  %81 = sub nsw i32 0, %80
  %82 = sitofp i32 %81 to float
  %83 = call noundef nonnull align 4 dereferenceable(4) ptr @_ZN3gmx11BasicVectorIfEixEi(ptr noundef nonnull align 4 dereferenceable(12) %6, i32 noundef 1)
  %84 = load float, ptr %83, align 4, !tbaa !140
  %85 = fdiv float %82, %84
  %86 = load ptr, ptr %4, align 8, !tbaa !4
  %87 = getelementptr inbounds nuw %"struct.gmx::MrcDensityMapHeader", ptr %86, i32 0, i32 9
  %88 = call noundef nonnull align 4 dereferenceable(4) ptr @_ZNKSt5arrayIiLm3EEixEm(ptr noundef nonnull align 4 dereferenceable(12) %87, i64 noundef 2) #16
  %89 = load i32, ptr %88, align 4, !tbaa !9
  %90 = sub nsw i32 0, %89
  %91 = sitofp i32 %90 to float
  %92 = call noundef nonnull align 4 dereferenceable(4) ptr @_ZN3gmx11BasicVectorIfEixEi(ptr noundef nonnull align 4 dereferenceable(12) %6, i32 noundef 2)
  %93 = load float, ptr %92, align 4, !tbaa !140
  %94 = fdiv float %91, %93
  call void @_ZN3gmx11BasicVectorIfEC2Efff(ptr noundef nonnull align 4 dereferenceable(12) %9, float noundef %76, float noundef %85, float noundef %94)
  call void @llvm.memcpy.p0.p0.i64(ptr align 4 %8, ptr align 4 %9, i64 12, i1 false), !tbaa.struct !142
  call void @llvm.lifetime.end.p0(i64 12, ptr %9) #16
  br label %105

95:                                               ; preds = %63, %59, %2
  call void @llvm.lifetime.start.p0(i64 12, ptr %10) #16
  %96 = call noundef float @_ZNK3gmx11BasicVectorIfEixEi(ptr noundef nonnull align 4 dereferenceable(12) %7, i32 noundef 0)
  %97 = fneg float %96
  %98 = fmul float %97, 0x3FB99999A0000000
  %99 = call noundef float @_ZNK3gmx11BasicVectorIfEixEi(ptr noundef nonnull align 4 dereferenceable(12) %7, i32 noundef 1)
  %100 = fneg float %99
  %101 = fmul float %100, 0x3FB99999A0000000
  %102 = call noundef float @_ZNK3gmx11BasicVectorIfEixEi(ptr noundef nonnull align 4 dereferenceable(12) %7, i32 noundef 2)
  %103 = fneg float %102
  %104 = fmul float %103, 0x3FB99999A0000000
  call void @_ZN3gmx11BasicVectorIfEC2Efff(ptr noundef nonnull align 4 dereferenceable(12) %10, float noundef %98, float noundef %101, float noundef %104)
  call void @llvm.memcpy.p0.p0.i64(ptr align 4 %8, ptr align 4 %10, i64 12, i1 false), !tbaa.struct !142
  call void @llvm.lifetime.end.p0(i64 12, ptr %10) #16
  br label %105

105:                                              ; preds = %95, %67
  call void @_ZN3gmx17TranslateAndScaleC1ERKNS_11BasicVectorIfEES4_(ptr noundef nonnull align 8 dereferenceable(8) %0, ptr noundef nonnull align 4 dereferenceable(12) %6, ptr noundef nonnull align 4 dereferenceable(12) %8)
  call void @llvm.lifetime.end.p0(i64 12, ptr %8) #16
  call void @llvm.lifetime.end.p0(i64 12, ptr %7) #16
  call void @llvm.lifetime.end.p0(i64 12, ptr %6) #16
  call void @llvm.lifetime.end.p0(i64 4, ptr %5) #16
  ret void
}