; Function Attrs: mustprogress uwtable
define void @_ZN3gmx36getCoordinateTransformationToLatticeERKNS_19MrcDensityMapHeaderE(ptr dead_on_unwind noalias writable sret(%"class.gmx::TranslateAndScale") align 8 %0, ptr noundef nonnull readonly align 8 captures(none) dereferenceable(1040) %1) local_unnamed_addr #0 {
  %3 = alloca %"class.gmx::BasicVector", align 4
  %4 = alloca %"class.gmx::BasicVector", align 4
  call void @llvm.lifetime.start.p0(i64 12, ptr nonnull %3) #18
  %5 = getelementptr inbounds nuw i8, ptr %1, i64 936
  %6 = load i32, ptr %5, align 8, !tbaa !4
  %7 = sitofp i32 %6 to float
  %8 = getelementptr inbounds nuw i8, ptr %1, i64 876
  %9 = load float, ptr %8, align 4, !tbaa !46
  %10 = fmul float %9, 0x3FB99999A0000000
  %11 = fdiv float %7, %10
  %12 = getelementptr inbounds nuw i8, ptr %1, i64 940
  %13 = load i32, ptr %12, align 4, !tbaa !4
  %14 = sitofp i32 %13 to float
  %15 = getelementptr inbounds nuw i8, ptr %1, i64 880
  %16 = load float, ptr %15, align 8, !tbaa !46
  %17 = fmul float %16, 0x3FB99999A0000000
  %18 = fdiv float %14, %17
  %19 = getelementptr inbounds nuw i8, ptr %1, i64 944
  %20 = load i32, ptr %19, align 8, !tbaa !4
  %21 = sitofp i32 %20 to float
  %22 = getelementptr inbounds nuw i8, ptr %1, i64 884
  %23 = load float, ptr %22, align 4, !tbaa !46
  %24 = fmul float %23, 0x3FB99999A0000000
  %25 = fdiv float %21, %24
  store float %11, ptr %3, align 4, !tbaa !46
  %26 = getelementptr inbounds nuw i8, ptr %3, i64 4
  store float %18, ptr %26, align 4, !tbaa !46
  %27 = getelementptr inbounds nuw i8, ptr %3, i64 8
  store float %25, ptr %27, align 4, !tbaa !46
  %28 = getelementptr inbounds nuw i8, ptr %1, i64 60
  %29 = load float, ptr %28, align 4, !tbaa !46
  %30 = getelementptr inbounds nuw i8, ptr %1, i64 64
  %31 = load float, ptr %30, align 8, !tbaa !46
  %32 = getelementptr inbounds nuw i8, ptr %1, i64 68
  %33 = load float, ptr %32, align 4, !tbaa !46
  call void @llvm.lifetime.start.p0(i64 12, ptr nonnull %4) #18
  %34 = fcmp oeq float %29, 0.000000e+00
  %35 = fcmp oeq float %31, 0.000000e+00
  %or.cond = select i1 %34, i1 %35, i1 false
  %36 = fcmp oeq float %33, 0.000000e+00
  %or.cond20 = select i1 %or.cond, i1 %36, i1 false
  br i1 %or.cond20, label %37, label %53

37:                                               ; preds = %2
  %38 = getelementptr inbounds nuw i8, ptr %1, i64 924
  %39 = load i32, ptr %38, align 4, !tbaa !4
  %40 = sub nsw i32 0, %39
  %41 = sitofp i32 %40 to float
  %42 = fdiv float %41, %11
  %43 = getelementptr inbounds nuw i8, ptr %1, i64 928
  %44 = load i32, ptr %43, align 8, !tbaa !4
  %45 = sub nsw i32 0, %44
  %46 = sitofp i32 %45 to float
  %47 = fdiv float %46, %18
  %48 = getelementptr inbounds nuw i8, ptr %1, i64 932
  %49 = load i32, ptr %48, align 4, !tbaa !4
  %50 = sub nsw i32 0, %49
  %51 = sitofp i32 %50 to float
  %52 = fdiv float %51, %25
  br label %57

53:                                               ; preds = %2
  %54 = fmul float %29, 0xBFB99999A0000000
  %55 = fmul float %31, 0xBFB99999A0000000
  %56 = fmul float %33, 0xBFB99999A0000000
  br label %57

57:                                               ; preds = %53, %37
  %.sink22 = phi float [ %42, %37 ], [ %54, %53 ]
  %.sink21 = phi float [ %47, %37 ], [ %55, %53 ]
  %.sink = phi float [ %52, %37 ], [ %56, %53 ]
  store float %.sink22, ptr %4, align 4
  %58 = getelementptr inbounds nuw i8, ptr %4, i64 4
  store float %.sink21, ptr %58, align 4
  %59 = getelementptr inbounds nuw i8, ptr %4, i64 8
  store float %.sink, ptr %59, align 4, !tbaa !31
  call void @_ZN3gmx17TranslateAndScaleC1ERKNS_11BasicVectorIfEES4_(ptr noundef nonnull align 8 dereferenceable(8) %0, ptr noundef nonnull align 4 dereferenceable(12) %3, ptr noundef nonnull align 4 dereferenceable(12) %4)
  call void @llvm.lifetime.end.p0(i64 12, ptr nonnull %4) #18
  call void @llvm.lifetime.end.p0(i64 12, ptr nonnull %3) #18
  ret void
}